target datalayout = "e-m:e-p270:32:32-p271:32:32-p272:64:64-i64:64-i128:128-f80:128-n8:16:32:64-S128"
target triple = "x86_64-pc-linux-gnu"

%struct.slurm_conf_t = type { i64, ptr, i16, ptr, ptr, ptr, ptr, ptr, i16, ptr, ptr, ptr, ptr, ptr, ptr, ptr, i16, ptr, ptr, ptr, ptr, i16, ptr, ptr, ptr, i64, ptr, ptr, ptr, ptr, i16, ptr, ptr, i16, i32, ptr, i32, ptr, i32, i32, ptr, ptr, i64, i64, ptr, i16, i16, ptr, i32, i32, ptr, i32, ptr, i32, i16, i16, i16, ptr, i16, i16, ptr, ptr, i32, i16, i16, ptr, i32, i16, ptr, ptr, ptr, ptr, i16, ptr, ptr, ptr, ptr, i32, ptr, ptr, ptr, ptr, i16, i16, ptr, i32, i32, i32, i16, i16, ptr, ptr, i16, ptr, ptr, i32, i32, i32, i32, i32, i64, i32, i32, i16, ptr, ptr, i32, ptr, ptr, ptr, i16, i32, ptr, ptr, i16, ptr, ptr, i32, i16, ptr, ptr, ptr, ptr, i32, i32, i16, i16, i32, ptr, i16, ptr, i32, i32, i32, i32, i32, i32, ptr, i16, ptr, ptr, i32, i16, ptr, i32, i16, i16, ptr, ptr, ptr, i16, ptr, ptr, ptr, ptr, i16, i16, ptr, i16, ptr, i16, ptr, i16, ptr, i16, ptr, ptr, ptr, ptr, i16, ptr, ptr, ptr, i32, ptr, i32, ptr, ptr, i16, ptr, ptr, i32, i16, ptr, ptr, i16, i16, ptr, i16, ptr, ptr, ptr, i32, ptr, i16, i16, ptr, ptr, ptr, ptr, ptr, ptr, ptr, ptr, i16, i32, i16, ptr, ptr, ptr, ptr, i32, ptr, ptr, ptr, i16, ptr, ptr, ptr, i16, ptr, i16, ptr, i16, i16, ptr }

@slurm_conf = external global %struct.slurm_conf_t, align 8
@.str.19 = private unnamed_addr constant [41 x i8] c"NET: %s: getnameinfo(%pA) failed: %s: %m\00", align 1
@__func__._getnameinfo = private unnamed_addr constant [13 x i8] c"_getnameinfo\00", align 1
@.str.20 = private unnamed_addr constant [37 x i8] c"NET: %s: getnameinfo(%pA) failed: %s\00", align 1

; Function Attrs: nounwind uwtable
define internal ptr @_getnameinfo(ptr noundef %0) #0 {
  %2 = alloca ptr, align 8
  %3 = alloca ptr, align 8
  %4 = alloca [1025 x i8], align 16
  %5 = alloca i32, align 4
  %6 = alloca i32, align 4
  store ptr %0, ptr %3, align 8
  call void @llvm.lifetime.start.p0(i64 1025, ptr %4) #9
  call void @llvm.memset.p0.i64(ptr align 16 %4, i8 0, i64 1025, i1 false)
  call void @llvm.lifetime.start.p0(i64 4, ptr %5) #9
  %7 = load ptr, ptr %3, align 8
  %8 = getelementptr inbounds [1025 x i8], ptr %4, i64 0, i64 0
  %9 = call i32 @getnameinfo(ptr noundef %7, i32 noundef 128, ptr noundef %8, i32 noundef 1025, ptr noundef null, i32 noundef 0, i32 noundef 8)
  store i32 %9, ptr %5, align 4
  %10 = load i32, ptr %5, align 4
  %11 = icmp eq i32 %10, -11
  br i1 %11, label %12, label %31

12:                                               ; preds = %1
  br label %13

13:                                               ; preds = %12
  %14 = load i64, ptr getelementptr inbounds nuw (%struct.slurm_conf_t, ptr @slurm_conf, i32 0, i32 42), align 8
  %15 = and i64 %14, 1024
  %16 = icmp ne i64 %15, 0
  br i1 %16, label %17, label %28

17:                                               ; preds = %13
  br label %18

18:                                               ; preds = %17
  %19 = call i32 @get_log_level()
  %20 = icmp sge i32 %19, 4
  br i1 %20, label %21, label %25

21:                                               ; preds = %18
  %22 = load ptr, ptr %3, align 8
  %23 = load i32, ptr %5, align 4
  %24 = call ptr @gai_strerror(i32 noundef %23) #9
  call void (i32, ptr, ...) @log_var(i32 noundef 4, ptr noundef @.str.19, ptr noundef @__func__._getnameinfo, ptr noundef %22, ptr noundef %24)
  br label %25

25:                                               ; preds = %21, %18
  br label %26

26:                                               ; preds = %25
  br label %27

27:                                               ; preds = %26
  br label %28

28:                                               ; preds = %27, %13
  br label %29

29:                                               ; preds = %28
  br label %30

30:                                               ; preds = %29
  store ptr null, ptr %2, align 8
  store i32 1, ptr %6, align 4
  br label %57

31:                                               ; preds = %1
  %32 = load i32, ptr %5, align 4
  %33 = icmp ne i32 %32, 0
  br i1 %33, label %34, label %53

34:                                               ; preds = %31
  br label %35

35:                                               ; preds = %34
  %36 = load i64, ptr getelementptr inbounds nuw (%struct.slurm_conf_t, ptr @slurm_conf, i32 0, i32 42), align 8
  %37 = and i64 %36, 1024
  %38 = icmp ne i64 %37, 0
  br i1 %38, label %39, label %50

39:                                               ; preds = %35
  br label %40

40:                                               ; preds = %39
  %41 = call i32 @get_log_level()
  %42 = icmp sge i32 %41, 4
  br i1 %42, label %43, label %47

43:                                               ; preds = %40
  %44 = load ptr, ptr %3, align 8
  %45 = load i32, ptr %5, align 4
  %46 = call ptr @gai_strerror(i32 noundef %45) #9
  call void (i32, ptr, ...) @log_var(i32 noundef 4, ptr noundef @.str.20, ptr noundef @__func__._getnameinfo, ptr noundef %44, ptr noundef %46)
  br label %47

47:                                               ; preds = %43, %40
  br label %48

48:                                               ; preds = %47
  br label %49

49:                                               ; preds = %48
  br label %50

50:                                               ; preds = %49, %35
  br label %51

51:                                               ; preds = %50
  br label %52

52:                                               ; preds = %51
  store ptr null, ptr %2, align 8
  store i32 1, ptr %6, align 4
  br label %57

53:                                               ; preds = %31
  br label %54

54:                                               ; preds = %53
  %55 = getelementptr inbounds [1025 x i8], ptr %4, i64 0, i64 0
  %56 = call ptr @xstrdup(ptr noundef %55)
  store ptr %56, ptr %2, align 8
  store i32 1, ptr %6, align 4
  br label %57

57:                                               ; preds = %54, %52, %30
  call void @llvm.lifetime.end.p0(i64 4, ptr %5) #9
  call void @llvm.lifetime.end.p0(i64 1025, ptr %4) #9
  %58 = load ptr, ptr %2, align 8
  ret ptr %58
}