; Function Attrs: nounwind uwtable
define internal fastcc ptr @_getnameinfo(ptr noundef %0) unnamed_addr #0 {
  %2 = alloca [1025 x i8], align 16
  call void @llvm.lifetime.start.p0(i64 1025, ptr nonnull %2) #14
  call void @llvm.memset.p0.i64(ptr noundef nonnull align 16 dereferenceable(1025) %2, i8 0, i64 1025, i1 false)
  %3 = call i32 @getnameinfo(ptr noundef %0, i32 noundef 128, ptr noundef nonnull %2, i32 noundef 1025, ptr noundef null, i32 noundef 0, i32 noundef 8) #14
  switch i32 %3, label %12 [
    i32 -11, label %4
    i32 0, label %20
  ]

4:                                                ; preds = %1
  %5 = load i64, ptr getelementptr inbounds nuw (i8, ptr @slurm_conf, i64 320), align 8
  %6 = and i64 %5, 1024
  %.not9 = icmp eq i64 %6, 0
  br i1 %.not9, label %22, label %7

7:                                                ; preds = %4
  %8 = call i32 @get_log_level() #14
  %9 = icmp sgt i32 %8, 3
  br i1 %9, label %10, label %22

10:                                               ; preds = %7
  %11 = call ptr @gai_strerror(i32 noundef -11) #14
  call void (i32, ptr, ...) @log_var(i32 noundef 4, ptr noundef nonnull @.str.19, ptr noundef nonnull @__func__._getnameinfo, ptr noundef %0, ptr noundef %11) #14
  br label %22

12:                                               ; preds = %1
  %13 = load i64, ptr getelementptr inbounds nuw (i8, ptr @slurm_conf, i64 320), align 8
  %14 = and i64 %13, 1024
  %.not8 = icmp eq i64 %14, 0
  br i1 %.not8, label %22, label %15

15:                                               ; preds = %12
  %16 = call i32 @get_log_level() #14
  %17 = icmp sgt i32 %16, 3
  br i1 %17, label %18, label %22

18:                                               ; preds = %15
  %19 = call ptr @gai_strerror(i32 noundef %3) #14
  call void (i32, ptr, ...) @log_var(i32 noundef 4, ptr noundef nonnull @.str.20, ptr noundef nonnull @__func__._getnameinfo, ptr noundef %0, ptr noundef %19) #14
  br label %22

20:                                               ; preds = %1
  %21 = call ptr @xstrdup(ptr noundef nonnull %2) #14
  br label %22

22:                                               ; preds = %12, %18, %15, %4, %10, %7, %20
  %.0 = phi ptr [ %21, %20 ], [ null, %7 ], [ null, %10 ], [ null, %4 ], [ null, %15 ], [ null, %18 ], [ null, %12 ]
  call void @llvm.lifetime.end.p0(i64 1025, ptr nonnull %2) #14
  ret ptr %.0
}